target datalayout = "e-m:e-p270:32:32-p271:32:32-p272:64:64-i64:64-i128:128-f80:128-n8:16:32:64-S128"
target triple = "x86_64-unknown-linux-gnu"

%class.aiMatrix4x4t = type { float, float, float, float, float, float, float, float, float, float, float, float, float, float, float, float }
%class.aiMatrix3x3t = type { float, float, float, float, float, float, float, float, float }

; Function Attrs: mustprogress nounwind uwtable
define linkonce_odr hidden void @_ZN12aiMatrix4x4tIfEC2ERK12aiMatrix3x3tIfE(ptr noundef nonnull align 4 dereferenceable(64) %this, ptr noundef nonnull align 4 dereferenceable(36) %m) unnamed_addr #0 comdat align 2 {
entry:
  %this.addr = alloca ptr, align 8
  %m.addr = alloca ptr, align 8
  store ptr %this, ptr %this.addr, align 8
  store ptr %m, ptr %m.addr, align 8
  %this1 = load ptr, ptr %this.addr, align 8
  %0 = load ptr, ptr %m.addr, align 8
  %a1 = getelementptr inbounds %class.aiMatrix3x3t, ptr %0, i32 0, i32 0
  %1 = load float, ptr %a1, align 4
  %a12 = getelementptr inbounds %class.aiMatrix4x4t, ptr %this1, i32 0, i32 0
  store float %1, ptr %a12, align 4
  %2 = load ptr, ptr %m.addr, align 8
  %a2 = getelementptr inbounds %class.aiMatrix3x3t, ptr %2, i32 0, i32 1
  %3 = load float, ptr %a2, align 4
  %a23 = getelementptr inbounds %class.aiMatrix4x4t, ptr %this1, i32 0, i32 1
  store float %3, ptr %a23, align 4
  %4 = load ptr, ptr %m.addr, align 8
  %a3 = getelementptr inbounds %class.aiMatrix3x3t, ptr %4, i32 0, i32 2
  %5 = load float, ptr %a3, align 4
  %a34 = getelementptr inbounds %class.aiMatrix4x4t, ptr %this1, i32 0, i32 2
  store float %5, ptr %a34, align 4
  %a4 = getelementptr inbounds %class.aiMatrix4x4t, ptr %this1, i32 0, i32 3
  store float 0.000000e+00, ptr %a4, align 4
  %6 = load ptr, ptr %m.addr, align 8
  %b1 = getelementptr inbounds %class.aiMatrix3x3t, ptr %6, i32 0, i32 3
  %7 = load float, ptr %b1, align 4
  %b15 = getelementptr inbounds %class.aiMatrix4x4t, ptr %this1, i32 0, i32 4
  store float %7, ptr %b15, align 4
  %8 = load ptr, ptr %m.addr, align 8
  %b2 = getelementptr inbounds %class.aiMatrix3x3t, ptr %8, i32 0, i32 4
  %9 = load float, ptr %b2, align 4
  %b26 = getelementptr inbounds %class.aiMatrix4x4t, ptr %this1, i32 0, i32 5
  store float %9, ptr %b26, align 4
  %10 = load ptr, ptr %m.addr, align 8
  %b3 = getelementptr inbounds %class.aiMatrix3x3t, ptr %10, i32 0, i32 5
  %11 = load float, ptr %b3, align 4
  %b37 = getelementptr inbounds %class.aiMatrix4x4t, ptr %this1, i32 0, i32 6
  store float %11, ptr %b37, align 4
  %b4 = getelementptr inbounds %class.aiMatrix4x4t, ptr %this1, i32 0, i32 7
  store float 0.000000e+00, ptr %b4, align 4
  %12 = load ptr, ptr %m.addr, align 8
  %c1 = getelementptr inbounds %class.aiMatrix3x3t, ptr %12, i32 0, i32 6
  %13 = load float, ptr %c1, align 4
  %c18 = getelementptr inbounds %class.aiMatrix4x4t, ptr %this1, i32 0, i32 8
  store float %13, ptr %c18, align 4
  %14 = load ptr, ptr %m.addr, align 8
  %c2 = getelementptr inbounds %class.aiMatrix3x3t, ptr %14, i32 0, i32 7
  %15 = load float, ptr %c2, align 4
  %c29 = getelementptr inbounds %class.aiMatrix4x4t, ptr %this1, i32 0, i32 9
  store float %15, ptr %c29, align 4
  %16 = load ptr, ptr %m.addr, align 8
  %c3 = getelementptr inbounds %class.aiMatrix3x3t, ptr %16, i32 0, i32 8
  %17 = load float, ptr %c3, align 4
  %c310 = getelementptr inbounds %class.aiMatrix4x4t, ptr %this1, i32 0, i32 10
  store float %17, ptr %c310, align 4
  %c4 = getelementptr inbounds %class.aiMatrix4x4t, ptr %this1, i32 0, i32 11
  store float 0.000000e+00, ptr %c4, align 4
  %d1 = getelementptr inbounds %class.aiMatrix4x4t, ptr %this1, i32 0, i32 12
  store float 0.000000e+00, ptr %d1, align 4
  %d2 = getelementptr inbounds %class.aiMatrix4x4t, ptr %this1, i32 0, i32 13
  store float 0.000000e+00, ptr %d2, align 4
  %d3 = getelementptr inbounds %class.aiMatrix4x4t, ptr %this1, i32 0, i32 14
  store float 0.000000e+00, ptr %d3, align 4
  %d4 = getelementptr inbounds %class.aiMatrix4x4t, ptr %this1, i32 0, i32 15
  store float 1.000000e+00, ptr %d4, align 4
  ret void
}

; Function Attrs: mustprogress uwtable
define void @aiMatrix4FromMatrix3(ptr noundef %dst, ptr noundef %mat) #5 {
entry:
  %dst.addr = alloca ptr, align 8
  %mat.addr = alloca ptr, align 8
  %ref.tmp = alloca %class.aiMatrix4x4t, align 4
  store ptr %dst, ptr %dst.addr, align 8
  store ptr %mat, ptr %mat.addr, align 8
  %0 = load ptr, ptr %mat.addr, align 8
  call void @_ZN12aiMatrix4x4tIfEC2ERK12aiMatrix3x3tIfE(ptr noundef nonnull align 4 dereferenceable(64) %ref.tmp, ptr noundef nonnull align 4 dereferenceable(36) %0)
  %1 = load ptr, ptr %dst.addr, align 8
  call void @llvm.memcpy.p0.p0.i64(ptr align 4 %1, ptr align 4 %ref.tmp, i64 64, i1 false)
  ret void
}