; Function Attrs: mustprogress nofree norecurse nosync nounwind willreturn memory(argmem: readwrite) uwtable
define void @aiMatrix4FromMatrix3(ptr nocapture noundef writeonly %dst, ptr nocapture noundef readonly %mat) local_unnamed_addr #11 {
entry:
  %a3.i = getelementptr inbounds i8, ptr %mat, i64 8
  %0 = load float, ptr %a3.i, align 4
  %b1.i = getelementptr inbounds i8, ptr %mat, i64 12
  %b3.i = getelementptr inbounds i8, ptr %mat, i64 20
  %1 = load float, ptr %b3.i, align 4
  %c1.i = getelementptr inbounds i8, ptr %mat, i64 24
  %c3.i = getelementptr inbounds i8, ptr %mat, i64 32
  %2 = load float, ptr %c3.i, align 4
  %3 = load <2 x float>, ptr %mat, align 4
  %ref.tmp.sroa.3.0.dst.sroa_idx = getelementptr inbounds i8, ptr %dst, i64 8
  %ref.tmp.sroa.4.0.dst.sroa_idx = getelementptr inbounds i8, ptr %dst, i64 12
  %ref.tmp.sroa.5.0.dst.sroa_idx = getelementptr inbounds i8, ptr %dst, i64 16
  %4 = load <2 x float>, ptr %b1.i, align 4
  %ref.tmp.sroa.7.0.dst.sroa_idx = getelementptr inbounds i8, ptr %dst, i64 24
  %ref.tmp.sroa.8.0.dst.sroa_idx = getelementptr inbounds i8, ptr %dst, i64 28
  %ref.tmp.sroa.9.0.dst.sroa_idx = getelementptr inbounds i8, ptr %dst, i64 32
  %5 = load <2 x float>, ptr %c1.i, align 4
  store <2 x float> %3, ptr %dst, align 4
  store float %0, ptr %ref.tmp.sroa.3.0.dst.sroa_idx, align 4
  store float 0.000000e+00, ptr %ref.tmp.sroa.4.0.dst.sroa_idx, align 4
  store <2 x float> %4, ptr %ref.tmp.sroa.5.0.dst.sroa_idx, align 4
  store float %1, ptr %ref.tmp.sroa.7.0.dst.sroa_idx, align 4
  store float 0.000000e+00, ptr %ref.tmp.sroa.8.0.dst.sroa_idx, align 4
  store <2 x float> %5, ptr %ref.tmp.sroa.9.0.dst.sroa_idx, align 4
  %ref.tmp.sroa.11.0.dst.sroa_idx = getelementptr inbounds i8, ptr %dst, i64 40
  store float %2, ptr %ref.tmp.sroa.11.0.dst.sroa_idx, align 4
  %ref.tmp.sroa.12.0.dst.sroa_idx = getelementptr inbounds i8, ptr %dst, i64 44
  tail call void @llvm.memset.p0.i64(ptr noundef nonnull align 4 dereferenceable(16) %ref.tmp.sroa.12.0.dst.sroa_idx, i8 0, i64 16, i1 false)
  %ref.tmp.sroa.13.0.dst.sroa_idx = getelementptr inbounds i8, ptr %dst, i64 60
  store float 1.000000e+00, ptr %ref.tmp.sroa.13.0.dst.sroa_idx, align 4
  ret void
}